target datalayout = "e-m:e-p270:32:32-p271:32:32-p272:64:64-i64:64-i128:128-f80:128-n8:16:32:64-S128"
target triple = "x86_64-pc-linux-gnu"

%"class.llvm::SmallVectorImpl" = type { %"class.llvm::SmallVectorTemplateBase" }
%"class.llvm::SmallVectorTemplateBase" = type { %"class.llvm::SmallVectorTemplateCommon" }
%"class.llvm::SmallVectorTemplateCommon" = type { %"class.llvm::SmallVectorBase" }
%"class.llvm::SmallVectorBase" = type { ptr, i32, i32 }
%"class.llvm::SmallVector.10" = type { %"class.llvm::SmallVectorImpl" }
%"class.llvm::ilist_node_impl" = type { %"class.llvm::ilist_node_base" }
%"class.llvm::ilist_node_base" = type { %"class.llvm::ilist_detail::node_base_prevnext" }
%"class.llvm::ilist_detail::node_base_prevnext" = type { ptr, ptr }
%"struct.llvm::Align" = type { i8 }
%"class.llvm::MachineBasicBlock" = type { %"class.llvm::ilist_node_with_parent", ptr, i32, i32, ptr, %"class.llvm::iplist.180", %"class.llvm::SmallVector.193", %"class.llvm::SmallVector.198", %"class.std::vector.200", %"class.std::optional", %"class.std::vector.205", %"struct.llvm::Align", i32, i8, i8, ptr, i8, i8, i8, i8, i8, [3 x i8], %"class.std::optional.210", %"struct.llvm::MBBSectionID", i8, i8, i8, ptr, ptr, ptr }
%"class.llvm::ilist_node_with_parent" = type { %"class.llvm::ilist_node" }
%"class.llvm::ilist_node" = type { %"class.llvm::ilist_node_impl" }
%"class.llvm::iplist.180" = type { %"class.llvm::iplist_impl.181" }
%"class.llvm::iplist_impl.181" = type { %"struct.llvm::ilist_traits.182", %"class.llvm::simple_ilist.183" }
%"struct.llvm::ilist_traits.182" = type { ptr }
%"class.llvm::simple_ilist.183" = type { %"class.llvm::ilist_sentinel.186" }
%"class.llvm::ilist_sentinel.186" = type { %"class.llvm::ilist_node_impl.187" }
%"class.llvm::ilist_node_impl.187" = type { %"class.llvm::ilist_node_base.188" }
%"class.llvm::ilist_node_base.188" = type { %"class.llvm::ilist_detail::node_base_prevnext.189" }
%"class.llvm::ilist_detail::node_base_prevnext.189" = type { %"class.llvm::PointerIntPair.190", ptr }
%"class.llvm::PointerIntPair.190" = type { %"struct.llvm::detail::PunnedPointer.191" }
%"struct.llvm::detail::PunnedPointer.191" = type { [8 x i8] }
%"class.llvm::SmallVector.193" = type { %"class.llvm::SmallVectorImpl.194", %"struct.llvm::SmallVectorStorage.197" }
%"class.llvm::SmallVectorImpl.194" = type { %"class.llvm::SmallVectorTemplateBase.195" }
%"class.llvm::SmallVectorTemplateBase.195" = type { %"class.llvm::SmallVectorTemplateCommon.196" }
%"class.llvm::SmallVectorTemplateCommon.196" = type { %"class.llvm::SmallVectorBase" }
%"struct.llvm::SmallVectorStorage.197" = type { [32 x i8] }
%"class.llvm::SmallVector.198" = type { %"class.llvm::SmallVectorImpl.194", %"struct.llvm::SmallVectorStorage.199" }
%"struct.llvm::SmallVectorStorage.199" = type { [16 x i8] }
%"class.std::vector.200" = type { %"struct.std::_Vector_base.201" }
%"struct.std::_Vector_base.201" = type { %"struct.std::_Vector_base<llvm::BranchProbability, std::allocator<llvm::BranchProbability>>::_Vector_impl" }
%"struct.std::_Vector_base<llvm::BranchProbability, std::allocator<llvm::BranchProbability>>::_Vector_impl" = type { %"struct.std::_Vector_base<llvm::BranchProbability, std::allocator<llvm::BranchProbability>>::_Vector_impl_data" }
%"struct.std::_Vector_base<llvm::BranchProbability, std::allocator<llvm::BranchProbability>>::_Vector_impl_data" = type { ptr, ptr, ptr }
%"class.std::optional" = type { %"struct.std::_Optional_base" }
%"struct.std::_Optional_base" = type { %"struct.std::_Optional_payload" }
%"struct.std::_Optional_payload" = type { %"struct.std::_Optional_payload_base.base", [7 x i8] }
%"struct.std::_Optional_payload_base.base" = type <{ %"union.std::_Optional_payload_base<unsigned long>::_Storage", i8 }>
%"union.std::_Optional_payload_base<unsigned long>::_Storage" = type { i64 }
%"class.std::vector.205" = type { %"struct.std::_Vector_base.206" }
%"struct.std::_Vector_base.206" = type { %"struct.std::_Vector_base<llvm::MachineBasicBlock::RegisterMaskPair, std::allocator<llvm::MachineBasicBlock::RegisterMaskPair>>::_Vector_impl" }
%"struct.std::_Vector_base<llvm::MachineBasicBlock::RegisterMaskPair, std::allocator<llvm::MachineBasicBlock::RegisterMaskPair>>::_Vector_impl" = type { %"struct.std::_Vector_base<llvm::MachineBasicBlock::RegisterMaskPair, std::allocator<llvm::MachineBasicBlock::RegisterMaskPair>>::_Vector_impl_data" }
%"struct.std::_Vector_base<llvm::MachineBasicBlock::RegisterMaskPair, std::allocator<llvm::MachineBasicBlock::RegisterMaskPair>>::_Vector_impl_data" = type { ptr, ptr, ptr }
%"class.std::optional.210" = type { %"struct.std::_Optional_base.211" }
%"struct.std::_Optional_base.211" = type { %"struct.std::_Optional_payload.213" }
%"struct.std::_Optional_payload.213" = type { %"struct.std::_Optional_payload_base.base.215", [3 x i8] }
%"struct.std::_Optional_payload_base.base.215" = type <{ %"union.std::_Optional_payload_base<llvm::UniqueBBID>::_Storage", i8 }>
%"union.std::_Optional_payload_base<llvm::UniqueBBID>::_Storage" = type { %"struct.llvm::UniqueBBID" }
%"struct.llvm::UniqueBBID" = type { i32, i32 }
%"struct.llvm::MBBSectionID" = type { i32, i32 }
%"class.llvm::MachineTraceMetrics::Ensemble" = type { ptr, %"class.llvm::SmallVector.172", %"class.llvm::DenseMap.177", %"class.llvm::SmallVector.10", %"class.llvm::SmallVector.10", ptr }
%"class.llvm::SmallVector.172" = type { %"class.llvm::SmallVectorImpl.173", %"struct.llvm::SmallVectorStorage.176" }
%"class.llvm::SmallVectorImpl.173" = type { %"class.llvm::SmallVectorTemplateBase.174" }
%"class.llvm::SmallVectorTemplateBase.174" = type { %"class.llvm::SmallVectorTemplateCommon.175" }
%"class.llvm::SmallVectorTemplateCommon.175" = type { %"class.llvm::SmallVectorBase" }
%"struct.llvm::SmallVectorStorage.176" = type { [352 x i8] }
%"class.llvm::DenseMap.177" = type <{ ptr, i32, i32, i32, [4 x i8] }>
%"struct.llvm::MachineTraceMetrics::TraceBlockInfo" = type { ptr, ptr, i32, i32, i32, i32, i8, i8, i32, %"class.llvm::SmallVector.223" }
%"class.llvm::SmallVector.223" = type { %"class.llvm::SmallVectorImpl.224", %"struct.llvm::SmallVectorStorage.227" }
%"class.llvm::SmallVectorImpl.224" = type { %"class.llvm::SmallVectorTemplateBase.225" }
%"class.llvm::SmallVectorTemplateBase.225" = type { %"class.llvm::SmallVectorTemplateCommon.226" }
%"class.llvm::SmallVectorTemplateCommon.226" = type { %"class.llvm::SmallVectorBase" }
%"struct.llvm::SmallVectorStorage.227" = type { [32 x i8] }
%"class.llvm::MachineInstr" = type <{ %"class.llvm::ilist_node_with_parent.220", ptr, ptr, ptr, [3 x i8], %"class.llvm::ArrayRecycler<llvm::MachineOperand>::Capacity", i32, %"class.llvm::PointerSumType", %"class.llvm::DebugLoc", i32, i16, [2 x i8] }>
%"class.llvm::ilist_node_with_parent.220" = type { %"class.llvm::ilist_node.221" }
%"class.llvm::ilist_node.221" = type { %"class.llvm::ilist_node_impl.187" }
%"class.llvm::ArrayRecycler<llvm::MachineOperand>::Capacity" = type { i8 }
%"class.llvm::PointerSumType" = type { %"union.llvm::PointerSumType<llvm::MachineInstr::ExtraInfoInlineKinds, llvm::PointerSumTypeMember<0, llvm::MachineMemOperand *>, llvm::PointerSumTypeMember<1, llvm::MCSymbol *>, llvm::PointerSumTypeMember<2, llvm::MCSymbol *>, llvm::PointerSumTypeMember<3, llvm::MachineInstr::ExtraInfo *>>::StorageT" }
%"union.llvm::PointerSumType<llvm::MachineInstr::ExtraInfoInlineKinds, llvm::PointerSumTypeMember<0, llvm::MachineMemOperand *>, llvm::PointerSumTypeMember<1, llvm::MCSymbol *>, llvm::PointerSumTypeMember<2, llvm::MCSymbol *>, llvm::PointerSumTypeMember<3, llvm::MachineInstr::ExtraInfo *>>::StorageT" = type { i64 }
%"class.llvm::DebugLoc" = type { %"class.llvm::TypedTrackingMDRef" }
%"class.llvm::TypedTrackingMDRef" = type { %"class.llvm::TrackingMDRef" }
%"class.llvm::TrackingMDRef" = type { ptr }
%"class.llvm::MachineTraceMetrics::Trace" = type { ptr, ptr }

; Function Attrs: mustprogress nounwind uwtable
define linkonce_odr hidden noundef zeroext i1 @_ZNK4llvm19MachineTraceMetrics14TraceBlockInfo13hasValidDepthEv(ptr noundef nonnull align 8 dereferenceable(88) %0) #0 comdat align 2 {
  %2 = alloca ptr, align 8
  store ptr %0, ptr %2, align 8
  %3 = load ptr, ptr %2, align 8
  %4 = getelementptr inbounds nuw %"struct.llvm::MachineTraceMetrics::TraceBlockInfo", ptr %3, i32 0, i32 4
  %5 = load i32, ptr %4, align 8
  %6 = icmp ne i32 %5, -1
  ret i1 %6
}

; Function Attrs: mustprogress nounwind uwtable
define linkonce_odr hidden noundef ptr @_ZN4llvm25SmallVectorTemplateCommonINS_19MachineTraceMetrics14TraceBlockInfoEvE5beginEv(ptr noundef nonnull align 8 dereferenceable(16) %0) #0 comdat align 2 {
  %2 = alloca ptr, align 8
  store ptr %0, ptr %2, align 8
  %3 = load ptr, ptr %2, align 8
  %4 = getelementptr inbounds nuw %"class.llvm::SmallVectorBase", ptr %3, i32 0, i32 0
  %5 = load ptr, ptr %4, align 8
  ret ptr %5
}

; Function Attrs: mustprogress nounwind uwtable
define linkonce_odr hidden noundef zeroext i1 @_ZNK4llvm19MachineTraceMetrics14TraceBlockInfo17isUsefulDominatorERKS1_(ptr noundef nonnull align 8 dereferenceable(88) %0, ptr noundef nonnull align 8 dereferenceable(88) %1) #0 comdat align 2 {
  %3 = alloca i1, align 1
  %4 = alloca ptr, align 8
  %5 = alloca ptr, align 8
  store ptr %0, ptr %4, align 8
  store ptr %1, ptr %5, align 8
  %6 = load ptr, ptr %4, align 8
  %7 = call noundef zeroext i1 @_ZNK4llvm19MachineTraceMetrics14TraceBlockInfo13hasValidDepthEv(ptr noundef nonnull align 8 dereferenceable(88) %6)
  br i1 %7, label %8, label %11

8:                                                ; preds = %2
  %9 = load ptr, ptr %5, align 8
  %10 = call noundef zeroext i1 @_ZNK4llvm19MachineTraceMetrics14TraceBlockInfo13hasValidDepthEv(ptr noundef nonnull align 8 dereferenceable(88) %9)
  br i1 %10, label %12, label %11

11:                                               ; preds = %8, %2
  store i1 false, ptr %3, align 1
  br label %33

12:                                               ; preds = %8
  %13 = getelementptr inbounds nuw %"struct.llvm::MachineTraceMetrics::TraceBlockInfo", ptr %6, i32 0, i32 2
  %14 = load i32, ptr %13, align 8
  %15 = load ptr, ptr %5, align 8
  %16 = getelementptr inbounds nuw %"struct.llvm::MachineTraceMetrics::TraceBlockInfo", ptr %15, i32 0, i32 2
  %17 = load i32, ptr %16, align 8
  %18 = icmp ne i32 %14, %17
  br i1 %18, label %19, label %20

19:                                               ; preds = %12
  store i1 false, ptr %3, align 1
  br label %33

20:                                               ; preds = %12
  %21 = getelementptr inbounds nuw %"struct.llvm::MachineTraceMetrics::TraceBlockInfo", ptr %6, i32 0, i32 6
  %22 = load i8, ptr %21, align 8
  %23 = trunc i8 %22 to i1
  br i1 %23, label %24, label %31

24:                                               ; preds = %20
  %25 = getelementptr inbounds nuw %"struct.llvm::MachineTraceMetrics::TraceBlockInfo", ptr %6, i32 0, i32 4
  %26 = load i32, ptr %25, align 8
  %27 = load ptr, ptr %5, align 8
  %28 = getelementptr inbounds nuw %"struct.llvm::MachineTraceMetrics::TraceBlockInfo", ptr %27, i32 0, i32 4
  %29 = load i32, ptr %28, align 8
  %30 = icmp ule i32 %26, %29
  br label %31

31:                                               ; preds = %24, %20
  %32 = phi i1 [ false, %20 ], [ %30, %24 ]
  store i1 %32, ptr %3, align 1
  br label %33

33:                                               ; preds = %31, %19, %11
  %34 = load i1, ptr %3, align 1
  ret i1 %34
}

; Function Attrs: mustprogress nounwind uwtable
define linkonce_odr hidden noundef nonnull align 8 dereferenceable(88) ptr @_ZN4llvm25SmallVectorTemplateCommonINS_19MachineTraceMetrics14TraceBlockInfoEvEixEm(ptr noundef nonnull align 8 dereferenceable(16) %0, i64 noundef %1) #0 comdat align 2 {
  %3 = alloca ptr, align 8
  %4 = alloca i64, align 8
  store ptr %0, ptr %3, align 8
  store i64 %1, ptr %4, align 8
  %5 = load ptr, ptr %3, align 8
  %6 = call noundef ptr @_ZN4llvm25SmallVectorTemplateCommonINS_19MachineTraceMetrics14TraceBlockInfoEvE5beginEv(ptr noundef nonnull align 8 dereferenceable(16) %5)
  %7 = load i64, ptr %4, align 8
  %8 = getelementptr inbounds %"struct.llvm::MachineTraceMetrics::TraceBlockInfo", ptr %6, i64 %7
  ret ptr %8
}

; Function Attrs: mustprogress nounwind uwtable
define linkonce_odr hidden noundef i32 @_ZNK4llvm17MachineBasicBlock9getNumberEv(ptr noundef nonnull align 8 dereferenceable(288) %0) #0 comdat align 2 {
  %2 = alloca ptr, align 8
  store ptr %0, ptr %2, align 8
  %3 = load ptr, ptr %2, align 8
  %4 = getelementptr inbounds nuw %"class.llvm::MachineBasicBlock", ptr %3, i32 0, i32 2
  %5 = load i32, ptr %4, align 8
  ret i32 %5
}

; Function Attrs: mustprogress nounwind uwtable
define linkonce_odr hidden noundef ptr @_ZNK4llvm12MachineInstr9getParentEv(ptr noundef nonnull align 8 dereferenceable(70) %0) #0 comdat align 2 {
  %2 = alloca ptr, align 8
  store ptr %0, ptr %2, align 8
  %3 = load ptr, ptr %2, align 8
  %4 = getelementptr inbounds nuw %"class.llvm::MachineInstr", ptr %3, i32 0, i32 2
  %5 = load ptr, ptr %4, align 8
  ret ptr %5
}

; Function Attrs: mustprogress nounwind uwtable
define dso_local noundef zeroext i1 @_ZNK4llvm19MachineTraceMetrics5Trace12isDepInTraceERKNS_12MachineInstrES4_(ptr noundef nonnull align 8 dereferenceable(16) %0, ptr noundef nonnull align 8 dereferenceable(70) %1, ptr noundef nonnull align 8 dereferenceable(70) %2) #0 align 2 {
  %4 = alloca i1, align 1
  %5 = alloca ptr, align 8
  %6 = alloca ptr, align 8
  %7 = alloca ptr, align 8
  %8 = alloca ptr, align 8
  %9 = alloca ptr, align 8
  store ptr %0, ptr %5, align 8
  store ptr %1, ptr %6, align 8
  store ptr %2, ptr %7, align 8
  %10 = load ptr, ptr %5, align 8
  %11 = load ptr, ptr %6, align 8
  %12 = call noundef ptr @_ZNK4llvm12MachineInstr9getParentEv(ptr noundef nonnull align 8 dereferenceable(70) %11)
  %13 = load ptr, ptr %7, align 8
  %14 = call noundef ptr @_ZNK4llvm12MachineInstr9getParentEv(ptr noundef nonnull align 8 dereferenceable(70) %13)
  %15 = icmp eq ptr %12, %14
  br i1 %15, label %16, label %17

16:                                               ; preds = %3
  store i1 true, ptr %4, align 1
  br label %37

17:                                               ; preds = %3
  %18 = getelementptr inbounds nuw %"class.llvm::MachineTraceMetrics::Trace", ptr %10, i32 0, i32 0
  %19 = load ptr, ptr %18, align 8
  %20 = getelementptr inbounds nuw %"class.llvm::MachineTraceMetrics::Ensemble", ptr %19, i32 0, i32 1
  %21 = load ptr, ptr %6, align 8
  %22 = call noundef ptr @_ZNK4llvm12MachineInstr9getParentEv(ptr noundef nonnull align 8 dereferenceable(70) %21)
  %23 = call noundef i32 @_ZNK4llvm17MachineBasicBlock9getNumberEv(ptr noundef nonnull align 8 dereferenceable(288) %22)
  %24 = sext i32 %23 to i64
  %25 = call noundef nonnull align 8 dereferenceable(88) ptr @_ZN4llvm25SmallVectorTemplateCommonINS_19MachineTraceMetrics14TraceBlockInfoEvEixEm(ptr noundef nonnull align 8 dereferenceable(16) %20, i64 noundef %24)
  store ptr %25, ptr %8, align 8
  %26 = getelementptr inbounds nuw %"class.llvm::MachineTraceMetrics::Trace", ptr %10, i32 0, i32 0
  %27 = load ptr, ptr %26, align 8
  %28 = getelementptr inbounds nuw %"class.llvm::MachineTraceMetrics::Ensemble", ptr %27, i32 0, i32 1
  %29 = load ptr, ptr %7, align 8
  %30 = call noundef ptr @_ZNK4llvm12MachineInstr9getParentEv(ptr noundef nonnull align 8 dereferenceable(70) %29)
  %31 = call noundef i32 @_ZNK4llvm17MachineBasicBlock9getNumberEv(ptr noundef nonnull align 8 dereferenceable(288) %30)
  %32 = sext i32 %31 to i64
  %33 = call noundef nonnull align 8 dereferenceable(88) ptr @_ZN4llvm25SmallVectorTemplateCommonINS_19MachineTraceMetrics14TraceBlockInfoEvEixEm(ptr noundef nonnull align 8 dereferenceable(16) %28, i64 noundef %32)
  store ptr %33, ptr %9, align 8
  %34 = load ptr, ptr %8, align 8
  %35 = load ptr, ptr %9, align 8
  %36 = call noundef zeroext i1 @_ZNK4llvm19MachineTraceMetrics14TraceBlockInfo17isUsefulDominatorERKS1_(ptr noundef nonnull align 8 dereferenceable(88) %34, ptr noundef nonnull align 8 dereferenceable(88) %35)
  store i1 %36, ptr %4, align 1
  br label %37

37:                                               ; preds = %17, %16
  %38 = load i1, ptr %4, align 1
  ret i1 %38
}