; Function Attrs: mustprogress nofree norecurse nosync nounwind willreturn memory(read, inaccessiblemem: none) uwtable
define dso_local noundef zeroext i1 @_ZNK4llvm19MachineTraceMetrics5Trace12isDepInTraceERKNS_12MachineInstrES4_(ptr noundef nonnull readonly align 8 captures(none) dereferenceable(16) %0, ptr noundef nonnull readonly align 8 captures(none) dereferenceable(70) %1, ptr noundef nonnull readonly align 8 captures(none) dereferenceable(70) %2) local_unnamed_addr #5 align 2 {
  %4 = getelementptr inbounds nuw i8, ptr %1, i64 24
  %5 = load ptr, ptr %4, align 8
  %6 = getelementptr inbounds nuw i8, ptr %2, i64 24
  %7 = load ptr, ptr %6, align 8
  %8 = icmp eq ptr %5, %7
  br i1 %8, label %_ZNK4llvm19MachineTraceMetrics14TraceBlockInfo17isUsefulDominatorERKS1_.exit, label %9

9:                                                ; preds = %3
  %10 = load ptr, ptr %0, align 8
  %11 = getelementptr inbounds nuw i8, ptr %10, i64 8
  %12 = getelementptr inbounds nuw i8, ptr %5, i64 24
  %13 = load i32, ptr %12, align 8
  %14 = sext i32 %13 to i64
  %15 = load ptr, ptr %11, align 8
  %16 = getelementptr inbounds %"struct.llvm::MachineTraceMetrics::TraceBlockInfo", ptr %15, i64 %14
  %17 = getelementptr inbounds nuw i8, ptr %7, i64 24
  %18 = load i32, ptr %17, align 8
  %19 = sext i32 %18 to i64
  %20 = getelementptr inbounds %"struct.llvm::MachineTraceMetrics::TraceBlockInfo", ptr %15, i64 %19
  %21 = getelementptr inbounds nuw i8, ptr %16, i64 24
  %22 = load i32, ptr %21, align 8
  %.not5.i = icmp eq i32 %22, -1
  br i1 %.not5.i, label %_ZNK4llvm19MachineTraceMetrics14TraceBlockInfo17isUsefulDominatorERKS1_.exit, label %23

23:                                               ; preds = %9
  %24 = getelementptr inbounds nuw i8, ptr %20, i64 24
  %25 = load i32, ptr %24, align 8
  %.not6.i = icmp eq i32 %25, -1
  br i1 %.not6.i, label %_ZNK4llvm19MachineTraceMetrics14TraceBlockInfo17isUsefulDominatorERKS1_.exit, label %26

26:                                               ; preds = %23
  %27 = getelementptr inbounds nuw i8, ptr %16, i64 16
  %28 = load i32, ptr %27, align 8
  %29 = getelementptr inbounds nuw i8, ptr %20, i64 16
  %30 = load i32, ptr %29, align 8
  %.not.i = icmp eq i32 %28, %30
  br i1 %.not.i, label %31, label %_ZNK4llvm19MachineTraceMetrics14TraceBlockInfo17isUsefulDominatorERKS1_.exit

31:                                               ; preds = %26
  %32 = getelementptr inbounds nuw i8, ptr %16, i64 32
  %33 = load i8, ptr %32, align 8
  %34 = trunc i8 %33 to i1
  %35 = icmp ule i32 %22, %25
  %36 = and i1 %35, %34
  br label %_ZNK4llvm19MachineTraceMetrics14TraceBlockInfo17isUsefulDominatorERKS1_.exit

_ZNK4llvm19MachineTraceMetrics14TraceBlockInfo17isUsefulDominatorERKS1_.exit: ; preds = %31, %26, %23, %9, %3
  %.0 = phi i1 [ true, %3 ], [ %36, %31 ], [ false, %23 ], [ false, %9 ], [ false, %26 ]
  ret i1 %.0
}